target datalayout = "e-m:e-p270:32:32-p271:32:32-p272:64:64-i64:64-i128:128-f80:128-n8:16:32:64-S128"
target triple = "x86_64-pc-linux-gnu"

@LWLockTrancheNamesAllocated = internal global i32 0, align 4
@LWLockTrancheNames = internal global ptr null, align 8
@TopMemoryContext = external global ptr, align 8

; Function Attrs: inlinehint nounwind uwtable
define internal i32 @pg_leftmost_one_pos32(i32 noundef %0) #5 {
  %2 = alloca i32, align 4
  store i32 %0, ptr %2, align 4
  %3 = load i32, ptr %2, align 4
  %4 = call i32 @llvm.ctlz.i32(i32 %3, i1 true)
  %5 = sub i32 31, %4
  ret i32 %5
}

; Function Attrs: inlinehint nounwind uwtable
define internal i32 @pg_nextpower2_32(i32 noundef %0) #5 {
  %2 = alloca i32, align 4
  %3 = alloca i32, align 4
  store i32 %0, ptr %3, align 4
  %4 = load i32, ptr %3, align 4
  %5 = load i32, ptr %3, align 4
  %6 = sub i32 %5, 1
  %7 = and i32 %4, %6
  %8 = icmp eq i32 %7, 0
  br i1 %8, label %9, label %11

9:                                                ; preds = %1
  %10 = load i32, ptr %3, align 4
  store i32 %10, ptr %2, align 4
  br label %16

11:                                               ; preds = %1
  %12 = load i32, ptr %3, align 4
  %13 = call i32 @pg_leftmost_one_pos32(i32 noundef %12)
  %14 = add i32 %13, 1
  %15 = shl i32 1, %14
  store i32 %15, ptr %2, align 4
  br label %16

16:                                               ; preds = %11, %9
  %17 = load i32, ptr %2, align 4
  ret i32 %17
}

; Function Attrs: nounwind uwtable
define dso_local void @LWLockRegisterTranche(i32 noundef %0, ptr noundef %1) #0 {
  %3 = alloca i32, align 4
  %4 = alloca ptr, align 8
  %5 = alloca i32, align 4
  store i32 %0, ptr %3, align 4
  store ptr %1, ptr %4, align 8
  %6 = load i32, ptr %3, align 4
  %7 = icmp slt i32 %6, 92
  br i1 %7, label %8, label %9

8:                                                ; preds = %2
  br label %51

9:                                                ; preds = %2
  %10 = load i32, ptr %3, align 4
  %11 = sub i32 %10, 92
  store i32 %11, ptr %3, align 4
  %12 = load i32, ptr %3, align 4
  %13 = load i32, ptr @LWLockTrancheNamesAllocated, align 4
  %14 = icmp sge i32 %12, %13
  br i1 %14, label %15, label %45

15:                                               ; preds = %9
  call void @llvm.lifetime.start.p0(i64 4, ptr %5) #9
  %16 = load i32, ptr %3, align 4
  %17 = add i32 %16, 1
  %18 = icmp sgt i32 8, %17
  br i1 %18, label %19, label %20

19:                                               ; preds = %15
  br label %23

20:                                               ; preds = %15
  %21 = load i32, ptr %3, align 4
  %22 = add i32 %21, 1
  br label %23

23:                                               ; preds = %20, %19
  %24 = phi i32 [ 8, %19 ], [ %22, %20 ]
  %25 = call i32 @pg_nextpower2_32(i32 noundef %24)
  store i32 %25, ptr %5, align 4
  %26 = load ptr, ptr @LWLockTrancheNames, align 8
  %27 = icmp eq ptr %26, null
  br i1 %27, label %28, label %34

28:                                               ; preds = %23
  %29 = load ptr, ptr @TopMemoryContext, align 8
  %30 = load i32, ptr %5, align 4
  %31 = sext i32 %30 to i64
  %32 = mul i64 %31, 8
  %33 = call ptr @MemoryContextAllocZero(ptr noundef %29, i64 noundef %32)
  store ptr %33, ptr @LWLockTrancheNames, align 8
  br label %43

34:                                               ; preds = %23
  %35 = load ptr, ptr @LWLockTrancheNames, align 8
  %36 = load i32, ptr @LWLockTrancheNamesAllocated, align 4
  %37 = sext i32 %36 to i64
  %38 = mul i64 8, %37
  %39 = load i32, ptr %5, align 4
  %40 = sext i32 %39 to i64
  %41 = mul i64 8, %40
  %42 = call ptr @repalloc0(ptr noundef %35, i64 noundef %38, i64 noundef %41)
  store ptr %42, ptr @LWLockTrancheNames, align 8
  br label %43

43:                                               ; preds = %34, %28
  %44 = load i32, ptr %5, align 4
  store i32 %44, ptr @LWLockTrancheNamesAllocated, align 4
  call void @llvm.lifetime.end.p0(i64 4, ptr %5) #9
  br label %45

45:                                               ; preds = %43, %9
  %46 = load ptr, ptr %4, align 8
  %47 = load ptr, ptr @LWLockTrancheNames, align 8
  %48 = load i32, ptr %3, align 4
  %49 = sext i32 %48 to i64
  %50 = getelementptr inbounds ptr, ptr %47, i64 %49
  store ptr %46, ptr %50, align 8
  br label %51

51:                                               ; preds = %45, %8
  ret void
}