; Function Attrs: nounwind uwtable
define dso_local void @LWLockRegisterTranche(i32 noundef %0, ptr noundef %1) local_unnamed_addr #0 {
  %3 = icmp slt i32 %0, 92
  br i1 %3, label %32, label %4

4:                                                ; preds = %2
  %5 = add nsw i32 %0, -92
  %6 = load i32, ptr @LWLockTrancheNamesAllocated, align 4
  %.not = icmp slt i32 %5, %6
  %.pre = load ptr, ptr @LWLockTrancheNames, align 8
  br i1 %.not, label %28, label %7

7:                                                ; preds = %4
  %8 = tail call i32 @llvm.umax.i32(i32 %0, i32 99)
  %9 = add nsw i32 %8, -91
  %10 = tail call range(i32 0, 33) i32 @llvm.ctpop.i32(i32 %9)
  %11 = icmp samesign ult i32 %10, 2
  %12 = tail call range(i32 0, 33) i32 @llvm.ctlz.i32(i32 %9, i1 true)
  %13 = xor i32 %12, 31
  %14 = shl nuw i32 2, %13
  %.0.i = select i1 %11, i32 %9, i32 %14
  %15 = icmp eq ptr %.pre, null
  br i1 %15, label %16, label %21

16:                                               ; preds = %7
  %17 = load ptr, ptr @TopMemoryContext, align 8
  %18 = sext i32 %.0.i to i64
  %19 = shl nsw i64 %18, 3
  %20 = tail call ptr @MemoryContextAllocZero(ptr noundef %17, i64 noundef %19) #15
  br label %27

21:                                               ; preds = %7
  %22 = sext i32 %6 to i64
  %23 = shl nsw i64 %22, 3
  %24 = sext i32 %.0.i to i64
  %25 = shl nsw i64 %24, 3
  %26 = tail call ptr @repalloc0(ptr noundef nonnull %.pre, i64 noundef %23, i64 noundef %25) #15
  br label %27

27:                                               ; preds = %21, %16
  %storemerge = phi ptr [ %26, %21 ], [ %20, %16 ]
  store ptr %storemerge, ptr @LWLockTrancheNames, align 8
  store i32 %.0.i, ptr @LWLockTrancheNamesAllocated, align 4
  br label %28

28:                                               ; preds = %27, %4
  %29 = phi ptr [ %storemerge, %27 ], [ %.pre, %4 ]
  %30 = zext nneg i32 %5 to i64
  %31 = getelementptr inbounds nuw ptr, ptr %29, i64 %30
  store ptr %1, ptr %31, align 8
  br label %32

32:                                               ; preds = %2, %28
  ret void
}